target datalayout = "e-m:e-p270:32:32-p271:32:32-p272:64:64-i64:64-i128:128-f80:128-n8:16:32:64-S128"
target triple = "x86_64-pc-linux-gnu"

%struct.lua_TValue = type { %union.Value, [1 x i32], i32 }
%union.Value = type { ptr }
%struct.lua_State = type { i8, i8, i8, i8, i8, i8, i8, ptr, ptr, ptr, ptr, ptr, ptr, ptr, ptr, i32, i32, i16, i16, i32, ptr, ptr, ptr, ptr, ptr }
%struct.CallInfo = type { ptr, ptr, ptr, ptr, i32, i32 }

; Function Attrs: mustprogress uwtable
define dso_local noundef zeroext i1 @_ZN4Luau7CodeGen24forgLoopNonTableFallbackEP9lua_Stateii(ptr noundef %0, i32 noundef %1, i32 noundef %2) #2 {
  %4 = alloca ptr, align 8
  %5 = alloca i32, align 4
  %6 = alloca i32, align 4
  %7 = alloca ptr, align 8
  %8 = alloca ptr, align 8
  %9 = alloca ptr, align 8
  %10 = alloca ptr, align 8
  %11 = alloca ptr, align 8
  %12 = alloca ptr, align 8
  %13 = alloca ptr, align 8
  %14 = alloca ptr, align 8
  %15 = alloca ptr, align 8
  %16 = alloca ptr, align 8
  store ptr %0, ptr %4, align 8
  store i32 %1, ptr %5, align 4
  store i32 %2, ptr %6, align 4
  %17 = load ptr, ptr %4, align 8
  %18 = getelementptr inbounds %struct.lua_State, ptr %17, i32 0, i32 8
  %19 = load ptr, ptr %18, align 8
  store ptr %19, ptr %7, align 8
  %20 = load ptr, ptr %7, align 8
  %21 = load i32, ptr %5, align 4
  %22 = sext i32 %21 to i64
  %23 = getelementptr inbounds %struct.lua_TValue, ptr %20, i64 %22
  store ptr %23, ptr %8, align 8
  %24 = load ptr, ptr %8, align 8
  %25 = getelementptr inbounds %struct.lua_TValue, ptr %24, i64 2
  store ptr %25, ptr %9, align 8
  %26 = load ptr, ptr %8, align 8
  %27 = getelementptr inbounds %struct.lua_TValue, ptr %26, i64 3
  %28 = getelementptr inbounds %struct.lua_TValue, ptr %27, i64 2
  store ptr %28, ptr %10, align 8
  %29 = load ptr, ptr %9, align 8
  %30 = load ptr, ptr %10, align 8
  call void @llvm.memcpy.p0.p0.i64(ptr align 8 %30, ptr align 8 %29, i64 16, i1 false)
  %31 = load ptr, ptr %8, align 8
  %32 = getelementptr inbounds %struct.lua_TValue, ptr %31, i64 1
  store ptr %32, ptr %11, align 8
  %33 = load ptr, ptr %8, align 8
  %34 = getelementptr inbounds %struct.lua_TValue, ptr %33, i64 3
  %35 = getelementptr inbounds %struct.lua_TValue, ptr %34, i64 1
  store ptr %35, ptr %12, align 8
  %36 = load ptr, ptr %11, align 8
  %37 = load ptr, ptr %12, align 8
  call void @llvm.memcpy.p0.p0.i64(ptr align 8 %37, ptr align 8 %36, i64 16, i1 false)
  %38 = load ptr, ptr %8, align 8
  store ptr %38, ptr %13, align 8
  %39 = load ptr, ptr %8, align 8
  %40 = getelementptr inbounds %struct.lua_TValue, ptr %39, i64 3
  store ptr %40, ptr %14, align 8
  %41 = load ptr, ptr %13, align 8
  %42 = load ptr, ptr %14, align 8
  call void @llvm.memcpy.p0.p0.i64(ptr align 8 %42, ptr align 8 %41, i64 16, i1 false)
  %43 = load ptr, ptr %8, align 8
  %44 = getelementptr inbounds %struct.lua_TValue, ptr %43, i64 3
  %45 = getelementptr inbounds %struct.lua_TValue, ptr %44, i64 3
  %46 = load ptr, ptr %4, align 8
  %47 = getelementptr inbounds %struct.lua_State, ptr %46, i32 0, i32 7
  store ptr %45, ptr %47, align 8
  %48 = load ptr, ptr %4, align 8
  %49 = load ptr, ptr %8, align 8
  %50 = getelementptr inbounds %struct.lua_TValue, ptr %49, i64 3
  %51 = load i32, ptr %6, align 4
  %52 = trunc i32 %51 to i8
  %53 = zext i8 %52 to i32
  call void @_Z9luaD_callP9lua_StateP10lua_TValuei(ptr noundef %48, ptr noundef %50, i32 noundef %53)
  %54 = load ptr, ptr %4, align 8
  %55 = getelementptr inbounds %struct.lua_State, ptr %54, i32 0, i32 10
  %56 = load ptr, ptr %55, align 8
  %57 = getelementptr inbounds %struct.CallInfo, ptr %56, i32 0, i32 2
  %58 = load ptr, ptr %57, align 8
  %59 = load ptr, ptr %4, align 8
  %60 = getelementptr inbounds %struct.lua_State, ptr %59, i32 0, i32 7
  store ptr %58, ptr %60, align 8
  %61 = load ptr, ptr %4, align 8
  %62 = getelementptr inbounds %struct.lua_State, ptr %61, i32 0, i32 8
  %63 = load ptr, ptr %62, align 8
  store ptr %63, ptr %7, align 8
  %64 = load ptr, ptr %7, align 8
  %65 = load i32, ptr %5, align 4
  %66 = sext i32 %65 to i64
  %67 = getelementptr inbounds %struct.lua_TValue, ptr %64, i64 %66
  store ptr %67, ptr %8, align 8
  %68 = load ptr, ptr %8, align 8
  %69 = getelementptr inbounds %struct.lua_TValue, ptr %68, i64 3
  store ptr %69, ptr %15, align 8
  %70 = load ptr, ptr %8, align 8
  %71 = getelementptr inbounds %struct.lua_TValue, ptr %70, i64 2
  store ptr %71, ptr %16, align 8
  %72 = load ptr, ptr %15, align 8
  %73 = load ptr, ptr %16, align 8
  call void @llvm.memcpy.p0.p0.i64(ptr align 8 %73, ptr align 8 %72, i64 16, i1 false)
  %74 = load ptr, ptr %8, align 8
  %75 = getelementptr inbounds %struct.lua_TValue, ptr %74, i64 3
  %76 = getelementptr inbounds %struct.lua_TValue, ptr %75, i32 0, i32 2
  %77 = load i32, ptr %76, align 4
  %78 = icmp eq i32 %77, 0
  %79 = xor i1 %78, true
  ret i1 %79
}