; Function Attrs: mustprogress uwtable
define dso_local noundef zeroext i1 @_ZN4Luau7CodeGen24forgLoopNonTableFallbackEP9lua_Stateii(ptr noundef %0, i32 noundef %1, i32 noundef %2) local_unnamed_addr #2 {
  %4 = getelementptr inbounds i8, ptr %0, i64 16
  %5 = load ptr, ptr %4, align 8
  %6 = sext i32 %1 to i64
  %7 = getelementptr inbounds %struct.lua_TValue, ptr %5, i64 %6
  %8 = getelementptr inbounds i8, ptr %7, i64 32
  %9 = getelementptr inbounds i8, ptr %7, i64 48
  %10 = getelementptr inbounds i8, ptr %7, i64 80
  tail call void @llvm.memcpy.p0.p0.i64(ptr noundef nonnull align 8 dereferenceable(16) %10, ptr noundef nonnull align 8 dereferenceable(16) %8, i64 16, i1 false)
  %11 = getelementptr inbounds i8, ptr %7, i64 16
  %12 = getelementptr inbounds i8, ptr %7, i64 64
  tail call void @llvm.memcpy.p0.p0.i64(ptr noundef nonnull align 8 dereferenceable(16) %12, ptr noundef nonnull align 8 dereferenceable(16) %11, i64 16, i1 false)
  tail call void @llvm.memcpy.p0.p0.i64(ptr noundef nonnull align 8 dereferenceable(16) %9, ptr noundef nonnull align 8 dereferenceable(16) %7, i64 16, i1 false)
  %13 = getelementptr inbounds i8, ptr %7, i64 96
  %14 = getelementptr inbounds i8, ptr %0, i64 8
  store ptr %13, ptr %14, align 8
  %15 = and i32 %2, 255
  tail call void @_Z9luaD_callP9lua_StateP10lua_TValuei(ptr noundef %0, ptr noundef nonnull %9, i32 noundef %15)
  %16 = getelementptr inbounds i8, ptr %0, i64 32
  %17 = load ptr, ptr %16, align 8
  %18 = getelementptr inbounds i8, ptr %17, i64 16
  %19 = load ptr, ptr %18, align 8
  store ptr %19, ptr %14, align 8
  %20 = load ptr, ptr %4, align 8
  %21 = getelementptr inbounds %struct.lua_TValue, ptr %20, i64 %6
  %22 = getelementptr inbounds i8, ptr %21, i64 48
  %23 = getelementptr inbounds i8, ptr %21, i64 32
  tail call void @llvm.memcpy.p0.p0.i64(ptr noundef nonnull align 8 dereferenceable(16) %23, ptr noundef nonnull align 8 dereferenceable(16) %22, i64 16, i1 false)
  %24 = getelementptr inbounds i8, ptr %21, i64 60
  %25 = load i32, ptr %24, align 4
  %26 = icmp ne i32 %25, 0
  ret i1 %26
}